; Function Attrs: inlinehint mustprogress nounwind uwtable
define internal void @_ZN12_GLOBAL__N_17BIFImplD2Ev(ptr noundef nonnull align 8 dereferenceable(40) %0) unnamed_addr #7 align 2 personality ptr @__gxx_personality_v0 {
  %2 = getelementptr inbounds nuw i8, ptr %0, i64 16
  %3 = load ptr, ptr %2, align 8, !tbaa !30
  %4 = getelementptr inbounds nuw i8, ptr %0, i64 24
  %5 = load ptr, ptr %4, align 8, !tbaa !28
  %.not4.i.i.i.i = icmp eq ptr %3, %5
  br i1 %.not4.i.i.i.i, label %_ZSt8_DestroyIPN12_GLOBAL__N_17BIFImpl10UnitParamsES2_EvT_S4_RSaIT0_E.exit.i, label %.lr.ph.i.i.i.i

.lr.ph.i.i.i.i:                                   ; preds = %1, %.lr.ph.i.i.i.i
  %.05.i.i.i.i = phi ptr [ %8, %.lr.ph.i.i.i.i ], [ %3, %1 ]
  %6 = getelementptr inbounds nuw i8, ptr %.05.i.i.i.i, i64 104
  tail call void @_ZN2cv3MatD1Ev(ptr noundef nonnull align 8 dereferenceable(96) %6) #21
  %7 = getelementptr inbounds nuw i8, ptr %.05.i.i.i.i, i64 8
  tail call void @_ZN2cv3MatD1Ev(ptr noundef nonnull align 8 dereferenceable(96) %7) #21
  %8 = getelementptr inbounds nuw i8, ptr %.05.i.i.i.i, i64 200
  %.not.i.i.i.i = icmp eq ptr %8, %5
  br i1 %.not.i.i.i.i, label %_ZSt8_DestroyIPN12_GLOBAL__N_17BIFImpl10UnitParamsES2_EvT_S4_RSaIT0_E.exitthread-pre-split.i, label %.lr.ph.i.i.i.i, !llvm.loop !46

_ZSt8_DestroyIPN12_GLOBAL__N_17BIFImpl10UnitParamsES2_EvT_S4_RSaIT0_E.exitthread-pre-split.i: ; preds = %.lr.ph.i.i.i.i
  %.val.pr.i = load ptr, ptr %2, align 8, !tbaa !30
  br label %_ZSt8_DestroyIPN12_GLOBAL__N_17BIFImpl10UnitParamsES2_EvT_S4_RSaIT0_E.exit.i

_ZSt8_DestroyIPN12_GLOBAL__N_17BIFImpl10UnitParamsES2_EvT_S4_RSaIT0_E.exit.i: ; preds = %_ZSt8_DestroyIPN12_GLOBAL__N_17BIFImpl10UnitParamsES2_EvT_S4_RSaIT0_E.exitthread-pre-split.i, %1
  %.val.i = phi ptr [ %.val.pr.i, %_ZSt8_DestroyIPN12_GLOBAL__N_17BIFImpl10UnitParamsES2_EvT_S4_RSaIT0_E.exitthread-pre-split.i ], [ %3, %1 ]
  %.not.i.i.i = icmp eq ptr %.val.i, null
  br i1 %.not.i.i.i, label %_ZNSt6vectorIN12_GLOBAL__N_17BIFImpl10UnitParamsESaIS2_EED2Ev.exit, label %9

9:                                                ; preds = %_ZSt8_DestroyIPN12_GLOBAL__N_17BIFImpl10UnitParamsES2_EvT_S4_RSaIT0_E.exit.i
  tail call void @_ZdlPv(ptr noundef nonnull %.val.i) #23
  br label %_ZNSt6vectorIN12_GLOBAL__N_17BIFImpl10UnitParamsESaIS2_EED2Ev.exit

_ZNSt6vectorIN12_GLOBAL__N_17BIFImpl10UnitParamsESaIS2_EED2Ev.exit: ; preds = %_ZSt8_DestroyIPN12_GLOBAL__N_17BIFImpl10UnitParamsES2_EvT_S4_RSaIT0_E.exit.i, %9
  tail call void @_ZN2cv9AlgorithmD2Ev(ptr noundef nonnull align 8 dereferenceable(8) %0) #21
  ret void
}